; Function Attrs: nounwind uwtable
define range(i32 -1, 1) i32 @H5E_init() local_unnamed_addr #0 {
  %1 = load i8, ptr @H5E_init_g, align 1, !tbaa !3, !range !7, !noundef !8
  %2 = trunc nuw i8 %1 to i1
  %3 = load i8, ptr @H5_libterm_g, align 1, !range !7
  %4 = trunc nuw i8 %3 to i1
  %5 = select i1 %2, i1 true, i1 %4
  br i1 %5, label %13, label %6, !prof !9

6:                                                ; preds = %0
  store i8 1, ptr @H5E_init_g, align 1, !tbaa !3
  %7 = tail call i32 @H5E__init_package()
  %8 = icmp slt i32 %7, 0
  br i1 %8, label %9, label %13

9:                                                ; preds = %6
  store i8 0, ptr @H5E_init_g, align 1, !tbaa !3
  %10 = load i64, ptr @H5E_FUNC_g, align 8, !tbaa !10
  %11 = load i64, ptr @H5E_CANTINIT_g, align 8, !tbaa !10
  %12 = tail call i32 (ptr, ptr, i32, i64, i64, ptr, ...) @H5E_printf_stack(ptr noundef nonnull @.str.1, ptr noundef nonnull @__func__.H5E_init, i32 noundef 222, i64 noundef %10, i64 noundef %11, ptr noundef nonnull @.str.2)
  br label %13

13:                                               ; preds = %0, %6, %9
  %.0 = phi i32 [ -1, %9 ], [ 0, %6 ], [ 0, %0 ]
  ret i32 %.0
}